; ModuleID = '57/1469.c'
source_filename = "57/1469.c"
target datalayout = "e-m:e-p270:32:32-p271:32:32-p272:64:64-i64:64-f80:128-n8:16:32:64-S128"
target triple = "x86_64-pc-linux-gnu"

@.str = private unnamed_addr constant [3 x i8] c"%d\00", align 1
@.str.1 = private unnamed_addr constant [4 x i8] c"\0A%s\00", align 1
@.str.2 = private unnamed_addr constant [4 x i8] c"%s\0A\00", align 1

; Function Attrs: noinline nounwind uwtable
define dso_local i32 @main(i32 %0, i8** %1) #0 {
  %3 = alloca i32, align 4
  %4 = alloca i32, align 4
  %5 = alloca i8**, align 8
  %6 = alloca i32, align 4
  %7 = alloca i32, align 4
  %8 = alloca [100 x i8], align 16
  %9 = alloca i32, align 4
  store i32 0, i32* %3, align 4
  store i32 %0, i32* %4, align 4
  store i8** %1, i8*** %5, align 8
  %10 = call i32 (i8*, ...) @__isoc99_scanf(i8* getelementptr inbounds ([3 x i8], [3 x i8]* @.str, i64 0, i64 0), i32* %6)
  store i32 0, i32* %7, align 4
  br label %11

11:                                               ; preds = %71, %2
  %12 = load i32, i32* %7, align 4
  %13 = load i32, i32* %6, align 4
  %14 = icmp slt i32 %12, %13
  br i1 %14, label %15, label %74

15:                                               ; preds = %11
  %16 = getelementptr inbounds [100 x i8], [100 x i8]* %8, i64 0, i64 0
  %17 = call i32 (i8*, ...) @__isoc99_scanf(i8* getelementptr inbounds ([4 x i8], [4 x i8]* @.str.1, i64 0, i64 0), i8* %16)
  store i32 0, i32* %9, align 4
  br label %18

18:                                               ; preds = %27, %15
  %19 = load i32, i32* %9, align 4
  %20 = sext i32 %19 to i64
  %21 = getelementptr inbounds [100 x i8], [100 x i8]* %8, i64 0, i64 %20
  %22 = load i8, i8* %21, align 1
  %23 = sext i8 %22 to i32
  %24 = icmp eq i32 %23, 0
  br i1 %24, label %25, label %26

25:                                               ; preds = %18
  br label %30

26:                                               ; preds = %18
  br label %27

27:                                               ; preds = %26
  %28 = load i32, i32* %9, align 4
  %29 = add nsw i32 %28, 1
  store i32 %29, i32* %9, align 4
  br label %18

30:                                               ; preds = %25
  %31 = load i32, i32* %9, align 4
  %32 = sub nsw i32 %31, 1
  %33 = sext i32 %32 to i64
  %34 = getelementptr inbounds [100 x i8], [100 x i8]* %8, i64 0, i64 %33
  %35 = load i8, i8* %34, align 1
  %36 = sext i8 %35 to i32
  %37 = icmp eq i32 %36, 114
  br i1 %37, label %46, label %38

38:                                               ; preds = %30
  %39 = load i32, i32* %9, align 4
  %40 = sub nsw i32 %39, 1
  %41 = sext i32 %40 to i64
  %42 = getelementptr inbounds [100 x i8], [100 x i8]* %8, i64 0, i64 %41
  %43 = load i8, i8* %42, align 1
  %44 = sext i8 %43 to i32
  %45 = icmp eq i32 %44, 121
  br i1 %45, label %46, label %55

46:                                               ; preds = %38, %30
  %47 = load i32, i32* %9, align 4
  %48 = sub nsw i32 %47, 1
  %49 = sext i32 %48 to i64
  %50 = getelementptr inbounds [100 x i8], [100 x i8]* %8, i64 0, i64 %49
  store i8 0, i8* %50, align 1
  %51 = load i32, i32* %9, align 4
  %52 = sub nsw i32 %51, 2
  %53 = sext i32 %52 to i64
  %54 = getelementptr inbounds [100 x i8], [100 x i8]* %8, i64 0, i64 %53
  store i8 0, i8* %54, align 1
  br label %68

55:                                               ; preds = %38
  %56 = load i32, i32* %9, align 4
  %57 = sub nsw i32 %56, 1
  %58 = sext i32 %57 to i64
  %59 = getelementptr inbounds [100 x i8], [100 x i8]* %8, i64 0, i64 %58
  store i8 0, i8* %59, align 1
  %60 = load i32, i32* %9, align 4
  %61 = sub nsw i32 %60, 2
  %62 = sext i32 %61 to i64
  %63 = getelementptr inbounds [100 x i8], [100 x i8]* %8, i64 0, i64 %62
  store i8 0, i8* %63, align 1
  %64 = load i32, i32* %9, align 4
  %65 = sub nsw i32 %64, 3
  %66 = sext i32 %65 to i64
  %67 = getelementptr inbounds [100 x i8], [100 x i8]* %8, i64 0, i64 %66
  store i8 0, i8* %67, align 1
  br label %68

68:                                               ; preds = %55, %46
  %69 = getelementptr inbounds [100 x i8], [100 x i8]* %8, i64 0, i64 0
  %70 = call i32 (i8*, ...) @printf(i8* getelementptr inbounds ([4 x i8], [4 x i8]* @.str.2, i64 0, i64 0), i8* %69)
  br label %71

71:                                               ; preds = %68
  %72 = load i32, i32* %7, align 4
  %73 = add nsw i32 %72, 1
  store i32 %73, i32* %7, align 4
  br label %11

74:                                               ; preds = %11
  ret i32 0
}

declare dso_local i32 @__isoc99_scanf(i8*, ...) #1

declare dso_local i32 @printf(i8*, ...) #1


!llvm.module.flags = !{!0}
!llvm.ident = !{!1}

!0 = !{i32 1, !"wchar_size", i32 4}
!1 = !{!"clang version 10.0.0-4ubuntu1 "}
